target datalayout = "e-m:e-p270:32:32-p271:32:32-p272:64:64-i64:64-i128:128-f80:128-n8:16:32:64-S128"
target triple = "x86_64-pc-linux-gnu"

%struct.FT_BBox_ = type { i64, i64, i64, i64 }
%struct.TBBox_Rec_ = type { %struct.FT_Vector_, %struct.FT_BBox_ }
%struct.FT_Vector_ = type { i64, i64 }

; Function Attrs: nounwind uwtable
define internal void @BBox_Conic_Check(i64 noundef %0, i64 noundef %1, i64 noundef %2, ptr noundef %3, ptr noundef %4) #0 {
  %6 = alloca i64, align 8
  %7 = alloca i64, align 8
  %8 = alloca i64, align 8
  %9 = alloca ptr, align 8
  %10 = alloca ptr, align 8
  store i64 %0, ptr %6, align 8
  store i64 %1, ptr %7, align 8
  store i64 %2, ptr %8, align 8
  store ptr %3, ptr %9, align 8
  store ptr %4, ptr %10, align 8
  %11 = load i64, ptr %7, align 8
  %12 = load i64, ptr %6, align 8
  %13 = sub nsw i64 %12, %11
  store i64 %13, ptr %6, align 8
  %14 = load i64, ptr %7, align 8
  %15 = load i64, ptr %8, align 8
  %16 = sub nsw i64 %15, %14
  store i64 %16, ptr %8, align 8
  %17 = load i64, ptr %6, align 8
  %18 = load i64, ptr %8, align 8
  %19 = load i64, ptr %6, align 8
  %20 = load i64, ptr %8, align 8
  %21 = add nsw i64 %19, %20
  %22 = call i64 @FT_MulDiv(i64 noundef %17, i64 noundef %18, i64 noundef %21)
  %23 = load i64, ptr %7, align 8
  %24 = add nsw i64 %23, %22
  store i64 %24, ptr %7, align 8
  %25 = load i64, ptr %7, align 8
  %26 = load ptr, ptr %9, align 8
  %27 = load i64, ptr %26, align 8
  %28 = icmp slt i64 %25, %27
  br i1 %28, label %29, label %32

29:                                               ; preds = %5
  %30 = load i64, ptr %7, align 8
  %31 = load ptr, ptr %9, align 8
  store i64 %30, ptr %31, align 8
  br label %32

32:                                               ; preds = %29, %5
  %33 = load i64, ptr %7, align 8
  %34 = load ptr, ptr %10, align 8
  %35 = load i64, ptr %34, align 8
  %36 = icmp sgt i64 %33, %35
  br i1 %36, label %37, label %40

37:                                               ; preds = %32
  %38 = load i64, ptr %7, align 8
  %39 = load ptr, ptr %10, align 8
  store i64 %38, ptr %39, align 8
  br label %40

40:                                               ; preds = %37, %32
  ret void
}

; Function Attrs: nounwind uwtable
define internal i32 @BBox_Conic_To(ptr noundef %0, ptr noundef %1, ptr noundef %2) #0 {
  %4 = alloca ptr, align 8
  %5 = alloca ptr, align 8
  %6 = alloca ptr, align 8
  %7 = alloca ptr, align 8
  store ptr %0, ptr %4, align 8
  store ptr %1, ptr %5, align 8
  store ptr %2, ptr %6, align 8
  %8 = load ptr, ptr %6, align 8
  store ptr %8, ptr %7, align 8
  br label %9

9:                                                ; preds = %3
  %10 = load ptr, ptr %5, align 8
  %11 = getelementptr inbounds %struct.FT_Vector_, ptr %10, i32 0, i32 0
  %12 = load i64, ptr %11, align 8
  %13 = load ptr, ptr %7, align 8
  %14 = getelementptr inbounds %struct.TBBox_Rec_, ptr %13, i32 0, i32 1
  %15 = getelementptr inbounds %struct.FT_BBox_, ptr %14, i32 0, i32 0
  %16 = load i64, ptr %15, align 8
  %17 = icmp slt i64 %12, %16
  br i1 %17, label %18, label %25

18:                                               ; preds = %9
  %19 = load ptr, ptr %5, align 8
  %20 = getelementptr inbounds %struct.FT_Vector_, ptr %19, i32 0, i32 0
  %21 = load i64, ptr %20, align 8
  %22 = load ptr, ptr %7, align 8
  %23 = getelementptr inbounds %struct.TBBox_Rec_, ptr %22, i32 0, i32 1
  %24 = getelementptr inbounds %struct.FT_BBox_, ptr %23, i32 0, i32 0
  store i64 %21, ptr %24, align 8
  br label %25

25:                                               ; preds = %18, %9
  %26 = load ptr, ptr %5, align 8
  %27 = getelementptr inbounds %struct.FT_Vector_, ptr %26, i32 0, i32 0
  %28 = load i64, ptr %27, align 8
  %29 = load ptr, ptr %7, align 8
  %30 = getelementptr inbounds %struct.TBBox_Rec_, ptr %29, i32 0, i32 1
  %31 = getelementptr inbounds %struct.FT_BBox_, ptr %30, i32 0, i32 2
  %32 = load i64, ptr %31, align 8
  %33 = icmp sgt i64 %28, %32
  br i1 %33, label %34, label %41

34:                                               ; preds = %25
  %35 = load ptr, ptr %5, align 8
  %36 = getelementptr inbounds %struct.FT_Vector_, ptr %35, i32 0, i32 0
  %37 = load i64, ptr %36, align 8
  %38 = load ptr, ptr %7, align 8
  %39 = getelementptr inbounds %struct.TBBox_Rec_, ptr %38, i32 0, i32 1
  %40 = getelementptr inbounds %struct.FT_BBox_, ptr %39, i32 0, i32 2
  store i64 %37, ptr %40, align 8
  br label %41

41:                                               ; preds = %34, %25
  %42 = load ptr, ptr %5, align 8
  %43 = getelementptr inbounds %struct.FT_Vector_, ptr %42, i32 0, i32 1
  %44 = load i64, ptr %43, align 8
  %45 = load ptr, ptr %7, align 8
  %46 = getelementptr inbounds %struct.TBBox_Rec_, ptr %45, i32 0, i32 1
  %47 = getelementptr inbounds %struct.FT_BBox_, ptr %46, i32 0, i32 1
  %48 = load i64, ptr %47, align 8
  %49 = icmp slt i64 %44, %48
  br i1 %49, label %50, label %57

50:                                               ; preds = %41
  %51 = load ptr, ptr %5, align 8
  %52 = getelementptr inbounds %struct.FT_Vector_, ptr %51, i32 0, i32 1
  %53 = load i64, ptr %52, align 8
  %54 = load ptr, ptr %7, align 8
  %55 = getelementptr inbounds %struct.TBBox_Rec_, ptr %54, i32 0, i32 1
  %56 = getelementptr inbounds %struct.FT_BBox_, ptr %55, i32 0, i32 1
  store i64 %53, ptr %56, align 8
  br label %57

57:                                               ; preds = %50, %41
  %58 = load ptr, ptr %5, align 8
  %59 = getelementptr inbounds %struct.FT_Vector_, ptr %58, i32 0, i32 1
  %60 = load i64, ptr %59, align 8
  %61 = load ptr, ptr %7, align 8
  %62 = getelementptr inbounds %struct.TBBox_Rec_, ptr %61, i32 0, i32 1
  %63 = getelementptr inbounds %struct.FT_BBox_, ptr %62, i32 0, i32 3
  %64 = load i64, ptr %63, align 8
  %65 = icmp sgt i64 %60, %64
  br i1 %65, label %66, label %73

66:                                               ; preds = %57
  %67 = load ptr, ptr %5, align 8
  %68 = getelementptr inbounds %struct.FT_Vector_, ptr %67, i32 0, i32 1
  %69 = load i64, ptr %68, align 8
  %70 = load ptr, ptr %7, align 8
  %71 = getelementptr inbounds %struct.TBBox_Rec_, ptr %70, i32 0, i32 1
  %72 = getelementptr inbounds %struct.FT_BBox_, ptr %71, i32 0, i32 3
  store i64 %69, ptr %72, align 8
  br label %73

73:                                               ; preds = %66, %57
  br label %74

74:                                               ; preds = %73
  %75 = load ptr, ptr %4, align 8
  %76 = getelementptr inbounds %struct.FT_Vector_, ptr %75, i32 0, i32 0
  %77 = load i64, ptr %76, align 8
  %78 = load ptr, ptr %7, align 8
  %79 = getelementptr inbounds %struct.TBBox_Rec_, ptr %78, i32 0, i32 1
  %80 = getelementptr inbounds %struct.FT_BBox_, ptr %79, i32 0, i32 0
  %81 = load i64, ptr %80, align 8
  %82 = icmp slt i64 %77, %81
  br i1 %82, label %92, label %83

83:                                               ; preds = %74
  %84 = load ptr, ptr %4, align 8
  %85 = getelementptr inbounds %struct.FT_Vector_, ptr %84, i32 0, i32 0
  %86 = load i64, ptr %85, align 8
  %87 = load ptr, ptr %7, align 8
  %88 = getelementptr inbounds %struct.TBBox_Rec_, ptr %87, i32 0, i32 1
  %89 = getelementptr inbounds %struct.FT_BBox_, ptr %88, i32 0, i32 2
  %90 = load i64, ptr %89, align 8
  %91 = icmp sgt i64 %86, %90
  br i1 %91, label %92, label %109

92:                                               ; preds = %83, %74
  %93 = load ptr, ptr %7, align 8
  %94 = getelementptr inbounds %struct.TBBox_Rec_, ptr %93, i32 0, i32 0
  %95 = getelementptr inbounds %struct.FT_Vector_, ptr %94, i32 0, i32 0
  %96 = load i64, ptr %95, align 8
  %97 = load ptr, ptr %4, align 8
  %98 = getelementptr inbounds %struct.FT_Vector_, ptr %97, i32 0, i32 0
  %99 = load i64, ptr %98, align 8
  %100 = load ptr, ptr %5, align 8
  %101 = getelementptr inbounds %struct.FT_Vector_, ptr %100, i32 0, i32 0
  %102 = load i64, ptr %101, align 8
  %103 = load ptr, ptr %7, align 8
  %104 = getelementptr inbounds %struct.TBBox_Rec_, ptr %103, i32 0, i32 1
  %105 = getelementptr inbounds %struct.FT_BBox_, ptr %104, i32 0, i32 0
  %106 = load ptr, ptr %7, align 8
  %107 = getelementptr inbounds %struct.TBBox_Rec_, ptr %106, i32 0, i32 1
  %108 = getelementptr inbounds %struct.FT_BBox_, ptr %107, i32 0, i32 2
  call void @BBox_Conic_Check(i64 noundef %96, i64 noundef %99, i64 noundef %102, ptr noundef %105, ptr noundef %108)
  br label %109

109:                                              ; preds = %92, %83
  %110 = load ptr, ptr %4, align 8
  %111 = getelementptr inbounds %struct.FT_Vector_, ptr %110, i32 0, i32 1
  %112 = load i64, ptr %111, align 8
  %113 = load ptr, ptr %7, align 8
  %114 = getelementptr inbounds %struct.TBBox_Rec_, ptr %113, i32 0, i32 1
  %115 = getelementptr inbounds %struct.FT_BBox_, ptr %114, i32 0, i32 1
  %116 = load i64, ptr %115, align 8
  %117 = icmp slt i64 %112, %116
  br i1 %117, label %127, label %118

118:                                              ; preds = %109
  %119 = load ptr, ptr %4, align 8
  %120 = getelementptr inbounds %struct.FT_Vector_, ptr %119, i32 0, i32 1
  %121 = load i64, ptr %120, align 8
  %122 = load ptr, ptr %7, align 8
  %123 = getelementptr inbounds %struct.TBBox_Rec_, ptr %122, i32 0, i32 1
  %124 = getelementptr inbounds %struct.FT_BBox_, ptr %123, i32 0, i32 3
  %125 = load i64, ptr %124, align 8
  %126 = icmp sgt i64 %121, %125
  br i1 %126, label %127, label %144

127:                                              ; preds = %118, %109
  %128 = load ptr, ptr %7, align 8
  %129 = getelementptr inbounds %struct.TBBox_Rec_, ptr %128, i32 0, i32 0
  %130 = getelementptr inbounds %struct.FT_Vector_, ptr %129, i32 0, i32 1
  %131 = load i64, ptr %130, align 8
  %132 = load ptr, ptr %4, align 8
  %133 = getelementptr inbounds %struct.FT_Vector_, ptr %132, i32 0, i32 1
  %134 = load i64, ptr %133, align 8
  %135 = load ptr, ptr %5, align 8
  %136 = getelementptr inbounds %struct.FT_Vector_, ptr %135, i32 0, i32 1
  %137 = load i64, ptr %136, align 8
  %138 = load ptr, ptr %7, align 8
  %139 = getelementptr inbounds %struct.TBBox_Rec_, ptr %138, i32 0, i32 1
  %140 = getelementptr inbounds %struct.FT_BBox_, ptr %139, i32 0, i32 1
  %141 = load ptr, ptr %7, align 8
  %142 = getelementptr inbounds %struct.TBBox_Rec_, ptr %141, i32 0, i32 1
  %143 = getelementptr inbounds %struct.FT_BBox_, ptr %142, i32 0, i32 3
  call void @BBox_Conic_Check(i64 noundef %131, i64 noundef %134, i64 noundef %137, ptr noundef %140, ptr noundef %143)
  br label %144

144:                                              ; preds = %127, %118
  %145 = load ptr, ptr %7, align 8
  %146 = getelementptr inbounds %struct.TBBox_Rec_, ptr %145, i32 0, i32 0
  %147 = load ptr, ptr %5, align 8
  call void @llvm.memcpy.p0.p0.i64(ptr align 8 %146, ptr align 8 %147, i64 16, i1 false)
  ret i32 0
}