; Function Attrs: nounwind uwtable
define internal noundef i32 @BBox_Conic_To(ptr nocapture noundef readonly %0, ptr nocapture noundef readonly %1, ptr nocapture noundef %2) #0 {
  %4 = load i64, ptr %1, align 8
  %5 = getelementptr inbounds i8, ptr %2, i64 16
  %6 = load i64, ptr %5, align 8
  %7 = icmp slt i64 %4, %6
  br i1 %7, label %8, label %9

8:                                                ; preds = %3
  store i64 %4, ptr %5, align 8
  %.pre = load i64, ptr %1, align 8
  br label %9

9:                                                ; preds = %8, %3
  %10 = phi i64 [ %4, %8 ], [ %6, %3 ]
  %11 = phi i64 [ %.pre, %8 ], [ %4, %3 ]
  %12 = getelementptr inbounds i8, ptr %2, i64 32
  %13 = load i64, ptr %12, align 8
  %14 = icmp sgt i64 %11, %13
  br i1 %14, label %15, label %16

15:                                               ; preds = %9
  store i64 %11, ptr %12, align 8
  br label %16

16:                                               ; preds = %15, %9
  %17 = phi i64 [ %11, %15 ], [ %13, %9 ]
  %18 = getelementptr inbounds i8, ptr %1, i64 8
  %19 = load i64, ptr %18, align 8
  %20 = getelementptr inbounds i8, ptr %2, i64 24
  %21 = load i64, ptr %20, align 8
  %22 = icmp slt i64 %19, %21
  br i1 %22, label %23, label %24

23:                                               ; preds = %16
  store i64 %19, ptr %20, align 8
  %.pre43 = load i64, ptr %18, align 8
  br label %24

24:                                               ; preds = %23, %16
  %25 = phi i64 [ %.pre43, %23 ], [ %19, %16 ]
  %26 = getelementptr inbounds i8, ptr %2, i64 40
  %27 = load i64, ptr %26, align 8
  %28 = icmp sgt i64 %25, %27
  br i1 %28, label %29, label %30

29:                                               ; preds = %24
  store i64 %25, ptr %26, align 8
  br label %30

30:                                               ; preds = %24, %29
  %31 = load i64, ptr %0, align 8
  %32 = icmp slt i64 %31, %10
  %33 = icmp sgt i64 %31, %17
  %or.cond = or i1 %32, %33
  br i1 %or.cond, label %34, label %BBox_Conic_Check.exit

34:                                               ; preds = %30
  %35 = load i64, ptr %2, align 8
  %36 = load i64, ptr %1, align 8
  %37 = sub nsw i64 %35, %31
  %38 = sub nsw i64 %36, %31
  %39 = add nsw i64 %38, %37
  %40 = tail call i64 @FT_MulDiv(i64 noundef %37, i64 noundef %38, i64 noundef %39) #8
  %41 = add nsw i64 %40, %31
  %42 = load i64, ptr %5, align 8
  %43 = icmp slt i64 %41, %42
  br i1 %43, label %44, label %45

44:                                               ; preds = %34
  store i64 %41, ptr %5, align 8
  br label %45

45:                                               ; preds = %44, %34
  %46 = load i64, ptr %12, align 8
  %47 = icmp sgt i64 %41, %46
  br i1 %47, label %48, label %BBox_Conic_Check.exit

48:                                               ; preds = %45
  store i64 %41, ptr %12, align 8
  br label %BBox_Conic_Check.exit

BBox_Conic_Check.exit:                            ; preds = %30, %48, %45
  %49 = getelementptr inbounds i8, ptr %0, i64 8
  %50 = load i64, ptr %49, align 8
  %51 = load i64, ptr %20, align 8
  %52 = icmp slt i64 %50, %51
  br i1 %52, label %56, label %53

53:                                               ; preds = %BBox_Conic_Check.exit
  %54 = load i64, ptr %26, align 8
  %55 = icmp sgt i64 %50, %54
  br i1 %55, label %56, label %BBox_Conic_Check.exit42

56:                                               ; preds = %53, %BBox_Conic_Check.exit
  %57 = getelementptr inbounds i8, ptr %2, i64 8
  %58 = load i64, ptr %57, align 8
  %59 = load i64, ptr %18, align 8
  %60 = sub nsw i64 %58, %50
  %61 = sub nsw i64 %59, %50
  %62 = add nsw i64 %61, %60
  %63 = tail call i64 @FT_MulDiv(i64 noundef %60, i64 noundef %61, i64 noundef %62) #8
  %64 = add nsw i64 %63, %50
  %65 = load i64, ptr %20, align 8
  %66 = icmp slt i64 %64, %65
  br i1 %66, label %67, label %68

67:                                               ; preds = %56
  store i64 %64, ptr %20, align 8
  br label %68

68:                                               ; preds = %67, %56
  %69 = load i64, ptr %26, align 8
  %70 = icmp sgt i64 %64, %69
  br i1 %70, label %71, label %BBox_Conic_Check.exit42

71:                                               ; preds = %68
  store i64 %64, ptr %26, align 8
  br label %BBox_Conic_Check.exit42

BBox_Conic_Check.exit42:                          ; preds = %71, %68, %53
  tail call void @llvm.memcpy.p0.p0.i64(ptr noundef nonnull align 8 dereferenceable(16) %2, ptr noundef nonnull align 8 dereferenceable(16) %1, i64 16, i1 false)
  ret i32 0
}